; Function Attrs: nounwind uwtable
define hidden void @evutil_getaddrinfo_cancel_async_(ptr noundef %0) local_unnamed_addr #0 {
  %2 = load ptr, ptr @evdns_getaddrinfo_cancel_impl, align 8
  %3 = icmp ne ptr %2, null
  %4 = icmp ne ptr %0, null
  %or.cond = and i1 %4, %3
  br i1 %or.cond, label %5, label %6

5:                                                ; preds = %1
  tail call void %2(ptr noundef nonnull %0) #30
  br label %6

6:                                                ; preds = %5, %1
  ret void
}